; Function Attrs: nounwind uwtable
define ptr @l_Array_mapMUnsafe_map___at_Lean_Meta_IndPredBelow_mkBelowMatcher___spec__2(i64 noundef %0, i64 noundef %1, ptr noundef %2) local_unnamed_addr #0 {
  %.not42 = icmp ult i64 %1, %0
  br i1 %.not42, label %.lr.ph, label %._crit_edge

.lr.ph:                                           ; preds = %3, %54
  %.01944 = phi i64 [ %38, %54 ], [ %1, %3 ]
  %.02143 = phi ptr [ %.0.i.i30, %54 ], [ %2, %3 ]
  %4 = getelementptr inbounds nuw i8, ptr %.02143, i64 24
  %5 = getelementptr inbounds nuw [0 x ptr], ptr %4, i64 0, i64 %.01944
  %6 = load ptr, ptr %5, align 8, !tbaa !4
  %7 = ptrtoint ptr %6 to i64
  %8 = and i64 %7, 1
  %.not.i24 = icmp eq i64 %8, 0
  br i1 %.not.i24, label %9, label %lean_array_uget.exit

9:                                                ; preds = %.lr.ph
  %.val.i.i = load i32, ptr %6, align 4, !tbaa !12
  %10 = icmp sgt i32 %.val.i.i, 0
  br i1 %10, label %11, label %13, !prof !11

11:                                               ; preds = %9
  %12 = add nuw i32 %.val.i.i, 1
  store i32 %12, ptr %6, align 4, !tbaa !12
  br label %lean_array_uget.exit

13:                                               ; preds = %9
  %.not.i.i = icmp eq i32 %.val.i.i, 0
  br i1 %.not.i.i, label %lean_array_uget.exit, label %14

14:                                               ; preds = %13
  tail call void @lean_inc_ref_cold(ptr noundef nonnull %6) #6
  br label %lean_array_uget.exit

lean_array_uget.exit:                             ; preds = %.lr.ph, %11, %13, %14
  %.val.i.i25 = load i32, ptr %.02143, align 4, !tbaa !12
  %15 = icmp eq i32 %.val.i.i25, 1
  br i1 %15, label %lean_ensure_exclusive_array.exit.i, label %16

16:                                               ; preds = %lean_array_uget.exit
  %17 = tail call ptr @lean_copy_expand_array(ptr noundef nonnull %.02143, i1 noundef zeroext false) #6
  br label %lean_ensure_exclusive_array.exit.i

lean_ensure_exclusive_array.exit.i:               ; preds = %16, %lean_array_uget.exit
  %.0.i.i = phi ptr [ %17, %16 ], [ %.02143, %lean_array_uget.exit ]
  %18 = getelementptr inbounds nuw i8, ptr %.0.i.i, i64 24
  %19 = getelementptr inbounds nuw ptr, ptr %18, i64 %.01944
  %20 = load ptr, ptr %19, align 8, !tbaa !4
  %21 = ptrtoint ptr %20 to i64
  %22 = and i64 %21, 1
  %.not.i26 = icmp eq i64 %22, 0
  br i1 %.not.i26, label %23, label %lean_array_uset.exit

23:                                               ; preds = %lean_ensure_exclusive_array.exit.i
  %24 = load i32, ptr %20, align 4, !tbaa !12
  %25 = icmp sgt i32 %24, 1
  br i1 %25, label %26, label %28, !prof !11

26:                                               ; preds = %23
  %27 = add nsw i32 %24, -1
  store i32 %27, ptr %20, align 4, !tbaa !12
  br label %lean_array_uset.exit

28:                                               ; preds = %23
  %.not.i.i27 = icmp eq i32 %24, 0
  br i1 %.not.i.i27, label %lean_array_uset.exit, label %29

29:                                               ; preds = %28
  tail call void @lean_dec_ref_cold(ptr noundef nonnull %20) #6
  br label %lean_array_uset.exit

lean_array_uset.exit:                             ; preds = %lean_ensure_exclusive_array.exit.i, %26, %28, %29
  store ptr inttoptr (i64 1 to ptr), ptr %19, align 8, !tbaa !4
  %30 = tail call ptr @l_Lean_LocalDecl_toExpr(ptr noundef %6) #6
  br i1 %.not.i24, label %31, label %lean_dec.exit

31:                                               ; preds = %lean_array_uset.exit
  %32 = load i32, ptr %6, align 4, !tbaa !12
  %33 = icmp sgt i32 %32, 1
  br i1 %33, label %34, label %36, !prof !11

34:                                               ; preds = %31
  %35 = add nsw i32 %32, -1
  store i32 %35, ptr %6, align 4, !tbaa !12
  br label %lean_dec.exit

36:                                               ; preds = %31
  %.not.i = icmp eq i32 %32, 0
  br i1 %.not.i, label %lean_dec.exit, label %37

37:                                               ; preds = %36
  tail call void @lean_dec_ref_cold(ptr noundef nonnull %6) #6
  br label %lean_dec.exit

lean_dec.exit:                                    ; preds = %37, %36, %34, %lean_array_uset.exit
  %38 = add nuw i64 %.01944, 1
  %.val.i.i28 = load i32, ptr %.0.i.i, align 4, !tbaa !12
  %39 = icmp eq i32 %.val.i.i28, 1
  br i1 %39, label %lean_ensure_exclusive_array.exit.i29, label %40

40:                                               ; preds = %lean_dec.exit
  %41 = tail call ptr @lean_copy_expand_array(ptr noundef nonnull %.0.i.i, i1 noundef zeroext false) #6
  br label %lean_ensure_exclusive_array.exit.i29

lean_ensure_exclusive_array.exit.i29:             ; preds = %40, %lean_dec.exit
  %.0.i.i30 = phi ptr [ %41, %40 ], [ %.0.i.i, %lean_dec.exit ]
  %42 = getelementptr inbounds nuw i8, ptr %.0.i.i30, i64 24
  %43 = getelementptr inbounds nuw ptr, ptr %42, i64 %.01944
  %44 = load ptr, ptr %43, align 8, !tbaa !4
  %45 = ptrtoint ptr %44 to i64
  %46 = and i64 %45, 1
  %.not.i31 = icmp eq i64 %46, 0
  br i1 %.not.i31, label %47, label %54

47:                                               ; preds = %lean_ensure_exclusive_array.exit.i29
  %48 = load i32, ptr %44, align 4, !tbaa !12
  %49 = icmp sgt i32 %48, 1
  br i1 %49, label %50, label %52, !prof !11

50:                                               ; preds = %47
  %51 = add nsw i32 %48, -1
  store i32 %51, ptr %44, align 4, !tbaa !12
  br label %54

52:                                               ; preds = %47
  %.not.i.i32 = icmp eq i32 %48, 0
  br i1 %.not.i.i32, label %54, label %53

53:                                               ; preds = %52
  tail call void @lean_dec_ref_cold(ptr noundef nonnull %44) #6
  br label %54

54:                                               ; preds = %53, %52, %50, %lean_ensure_exclusive_array.exit.i29
  store ptr %30, ptr %43, align 8, !tbaa !4
  %exitcond.not = icmp eq i64 %38, %0
  br i1 %exitcond.not, label %._crit_edge, label %.lr.ph

._crit_edge:                                      ; preds = %54, %3
  %.021.lcssa = phi ptr [ %2, %3 ], [ %.0.i.i30, %54 ]
  ret ptr %.021.lcssa
}